
elf/clear_test.elf:     file format elf64-littleriscv


Disassembly of section .text:

0000000080000000 <_start>:
    80000000:	7179                	addi	sp,sp,-48
    80000002:	f422                	sd	s0,40(sp)
    80000004:	1800                	addi	s0,sp,48
    80000006:	11111537          	lui	a0,0x11111
    8000000a:	1115051b          	addiw	a0,a0,273
    8000000e:	0001                	nop
    80000010:	0001                	nop
    80000012:	0001                	nop
    80000014:	fc042e23          	sw	zero,-36(s0)
    80000018:	fe042623          	sw	zero,-20(s0)
    8000001c:	a025                	j	80000044 <_start+0x44>
    8000001e:	fdc42783          	lw	a5,-36(s0)
    80000022:	2781                	sext.w	a5,a5
    80000024:	fec42703          	lw	a4,-20(s0)
    80000028:	9fb9                	addw	a5,a5,a4
    8000002a:	2781                	sext.w	a5,a5
    8000002c:	fcf42e23          	sw	a5,-36(s0)
    80000030:	222222b7          	lui	t0,0x22222
    80000034:	2222829b          	addiw	t0,t0,546
    80000038:	0001                	nop
    8000003a:	fec42783          	lw	a5,-20(s0)
    8000003e:	2785                	addiw	a5,a5,1
    80000040:	fef42623          	sw	a5,-20(s0)
    80000044:	fec42783          	lw	a5,-20(s0)
    80000048:	0007871b          	sext.w	a4,a5
    8000004c:	47a5                	li	a5,9
    8000004e:	fce7d8e3          	bge	a5,a4,8000001e <_start+0x1e>
    80000052:	333335b7          	lui	a1,0x33333
    80000056:	3335859b          	addiw	a1,a1,819
    8000005a:	000807b7          	lui	a5,0x80
    8000005e:	0785                	addi	a5,a5,1
    80000060:	07b2                	slli	a5,a5,0xc
    80000062:	fef43023          	sd	a5,-32(s0)
    80000066:	fdc42783          	lw	a5,-36(s0)
    8000006a:	0007871b          	sext.w	a4,a5
    8000006e:	fe043783          	ld	a5,-32(s0)
    80000072:	c398                	sw	a4,0(a5)
    80000074:	44444637          	lui	a2,0x44444
    80000078:	4446061b          	addiw	a2,a2,1092
    8000007c:	0001                	nop
    8000007e:	bffd                	j	8000007c <_start+0x7c>
